target datalayout = "e-m:e-p270:32:32-p271:32:32-p272:64:64-i64:64-i128:128-f80:128-n8:16:32:64-S128"
target triple = "x86_64-pc-linux-gnu"

%struct.StringInfoData = type { ptr, i32, i32, i32 }

@.str.40 = private unnamed_addr constant [3 x i8] c"\\b\00", align 1
@.str.41 = private unnamed_addr constant [3 x i8] c"\\f\00", align 1
@.str.42 = private unnamed_addr constant [3 x i8] c"\\n\00", align 1
@.str.43 = private unnamed_addr constant [3 x i8] c"\\r\00", align 1
@.str.44 = private unnamed_addr constant [3 x i8] c"\\t\00", align 1
@.str.45 = private unnamed_addr constant [3 x i8] c"\\\22\00", align 1
@.str.46 = private unnamed_addr constant [3 x i8] c"\\\\\00", align 1
@.str.47 = private unnamed_addr constant [7 x i8] c"\\u%04x\00", align 1

; Function Attrs: alwaysinline nounwind uwtable
define internal void @escape_json_char(ptr noundef %0, i8 noundef signext %1) #5 {
  %3 = alloca ptr, align 8
  %4 = alloca i8, align 1
  store ptr %0, ptr %3, align 8
  store i8 %1, ptr %4, align 1
  %5 = load i8, ptr %4, align 1
  %6 = sext i8 %5 to i32
  switch i32 %6, label %21 [
    i32 8, label %7
    i32 12, label %9
    i32 10, label %11
    i32 13, label %13
    i32 9, label %15
    i32 34, label %17
    i32 92, label %19
  ]

7:                                                ; preds = %2
  %8 = load ptr, ptr %3, align 8
  call void @appendStringInfoString(ptr noundef %8, ptr noundef @.str.40)
  br label %62

9:                                                ; preds = %2
  %10 = load ptr, ptr %3, align 8
  call void @appendStringInfoString(ptr noundef %10, ptr noundef @.str.41)
  br label %62

11:                                               ; preds = %2
  %12 = load ptr, ptr %3, align 8
  call void @appendStringInfoString(ptr noundef %12, ptr noundef @.str.42)
  br label %62

13:                                               ; preds = %2
  %14 = load ptr, ptr %3, align 8
  call void @appendStringInfoString(ptr noundef %14, ptr noundef @.str.43)
  br label %62

15:                                               ; preds = %2
  %16 = load ptr, ptr %3, align 8
  call void @appendStringInfoString(ptr noundef %16, ptr noundef @.str.44)
  br label %62

17:                                               ; preds = %2
  %18 = load ptr, ptr %3, align 8
  call void @appendStringInfoString(ptr noundef %18, ptr noundef @.str.45)
  br label %62

19:                                               ; preds = %2
  %20 = load ptr, ptr %3, align 8
  call void @appendStringInfoString(ptr noundef %20, ptr noundef @.str.46)
  br label %62

21:                                               ; preds = %2
  %22 = load i8, ptr %4, align 1
  %23 = zext i8 %22 to i32
  %24 = icmp slt i32 %23, 32
  br i1 %24, label %25, label %29

25:                                               ; preds = %21
  %26 = load ptr, ptr %3, align 8
  %27 = load i8, ptr %4, align 1
  %28 = sext i8 %27 to i32
  call void (ptr, ptr, ...) @appendStringInfo(ptr noundef %26, ptr noundef @.str.47, i32 noundef %28)
  br label %61

29:                                               ; preds = %21
  %30 = load ptr, ptr %3, align 8
  %31 = getelementptr inbounds nuw %struct.StringInfoData, ptr %30, i32 0, i32 1
  %32 = load i32, ptr %31, align 8
  %33 = add i32 %32, 1
  %34 = load ptr, ptr %3, align 8
  %35 = getelementptr inbounds nuw %struct.StringInfoData, ptr %34, i32 0, i32 2
  %36 = load i32, ptr %35, align 4
  %37 = icmp sge i32 %33, %36
  br i1 %37, label %38, label %41

38:                                               ; preds = %29
  %39 = load ptr, ptr %3, align 8
  %40 = load i8, ptr %4, align 1
  call void @appendStringInfoChar(ptr noundef %39, i8 noundef signext %40)
  br label %60

41:                                               ; preds = %29
  %42 = load i8, ptr %4, align 1
  %43 = load ptr, ptr %3, align 8
  %44 = getelementptr inbounds nuw %struct.StringInfoData, ptr %43, i32 0, i32 0
  %45 = load ptr, ptr %44, align 8
  %46 = load ptr, ptr %3, align 8
  %47 = getelementptr inbounds nuw %struct.StringInfoData, ptr %46, i32 0, i32 1
  %48 = load i32, ptr %47, align 8
  %49 = sext i32 %48 to i64
  %50 = getelementptr inbounds i8, ptr %45, i64 %49
  store i8 %42, ptr %50, align 1
  %51 = load ptr, ptr %3, align 8
  %52 = getelementptr inbounds nuw %struct.StringInfoData, ptr %51, i32 0, i32 0
  %53 = load ptr, ptr %52, align 8
  %54 = load ptr, ptr %3, align 8
  %55 = getelementptr inbounds nuw %struct.StringInfoData, ptr %54, i32 0, i32 1
  %56 = load i32, ptr %55, align 8
  %57 = add i32 %56, 1
  store i32 %57, ptr %55, align 8
  %58 = sext i32 %57 to i64
  %59 = getelementptr inbounds i8, ptr %53, i64 %58
  store i8 0, ptr %59, align 1
  br label %60

60:                                               ; preds = %41, %38
  br label %61

61:                                               ; preds = %60, %25
  br label %62

62:                                               ; preds = %61, %19, %17, %15, %13, %11, %9, %7
  ret void
}

; Function Attrs: nounwind uwtable
define dso_local void @escape_json(ptr noundef %0, ptr noundef %1) #0 {
  %3 = alloca ptr, align 8
  %4 = alloca ptr, align 8
  store ptr %0, ptr %3, align 8
  store ptr %1, ptr %4, align 8
  %5 = load ptr, ptr %3, align 8
  %6 = getelementptr inbounds nuw %struct.StringInfoData, ptr %5, i32 0, i32 1
  %7 = load i32, ptr %6, align 8
  %8 = add i32 %7, 1
  %9 = load ptr, ptr %3, align 8
  %10 = getelementptr inbounds nuw %struct.StringInfoData, ptr %9, i32 0, i32 2
  %11 = load i32, ptr %10, align 4
  %12 = icmp sge i32 %8, %11
  br i1 %12, label %13, label %15

13:                                               ; preds = %2
  %14 = load ptr, ptr %3, align 8
  call void @appendStringInfoChar(ptr noundef %14, i8 noundef signext 34)
  br label %33

15:                                               ; preds = %2
  %16 = load ptr, ptr %3, align 8
  %17 = getelementptr inbounds nuw %struct.StringInfoData, ptr %16, i32 0, i32 0
  %18 = load ptr, ptr %17, align 8
  %19 = load ptr, ptr %3, align 8
  %20 = getelementptr inbounds nuw %struct.StringInfoData, ptr %19, i32 0, i32 1
  %21 = load i32, ptr %20, align 8
  %22 = sext i32 %21 to i64
  %23 = getelementptr inbounds i8, ptr %18, i64 %22
  store i8 34, ptr %23, align 1
  %24 = load ptr, ptr %3, align 8
  %25 = getelementptr inbounds nuw %struct.StringInfoData, ptr %24, i32 0, i32 0
  %26 = load ptr, ptr %25, align 8
  %27 = load ptr, ptr %3, align 8
  %28 = getelementptr inbounds nuw %struct.StringInfoData, ptr %27, i32 0, i32 1
  %29 = load i32, ptr %28, align 8
  %30 = add i32 %29, 1
  store i32 %30, ptr %28, align 8
  %31 = sext i32 %30 to i64
  %32 = getelementptr inbounds i8, ptr %26, i64 %31
  store i8 0, ptr %32, align 1
  br label %33

33:                                               ; preds = %15, %13
  br label %34

34:                                               ; preds = %43, %33
  %35 = load ptr, ptr %4, align 8
  %36 = load i8, ptr %35, align 1
  %37 = sext i8 %36 to i32
  %38 = icmp ne i32 %37, 0
  br i1 %38, label %39, label %46

39:                                               ; preds = %34
  %40 = load ptr, ptr %3, align 8
  %41 = load ptr, ptr %4, align 8
  %42 = load i8, ptr %41, align 1
  call void @escape_json_char(ptr noundef %40, i8 noundef signext %42)
  br label %43

43:                                               ; preds = %39
  %44 = load ptr, ptr %4, align 8
  %45 = getelementptr inbounds nuw i8, ptr %44, i32 1
  store ptr %45, ptr %4, align 8
  br label %34, !llvm.loop !12

46:                                               ; preds = %34
  %47 = load ptr, ptr %3, align 8
  %48 = getelementptr inbounds nuw %struct.StringInfoData, ptr %47, i32 0, i32 1
  %49 = load i32, ptr %48, align 8
  %50 = add i32 %49, 1
  %51 = load ptr, ptr %3, align 8
  %52 = getelementptr inbounds nuw %struct.StringInfoData, ptr %51, i32 0, i32 2
  %53 = load i32, ptr %52, align 4
  %54 = icmp sge i32 %50, %53
  br i1 %54, label %55, label %57

55:                                               ; preds = %46
  %56 = load ptr, ptr %3, align 8
  call void @appendStringInfoChar(ptr noundef %56, i8 noundef signext 34)
  br label %75

57:                                               ; preds = %46
  %58 = load ptr, ptr %3, align 8
  %59 = getelementptr inbounds nuw %struct.StringInfoData, ptr %58, i32 0, i32 0
  %60 = load ptr, ptr %59, align 8
  %61 = load ptr, ptr %3, align 8
  %62 = getelementptr inbounds nuw %struct.StringInfoData, ptr %61, i32 0, i32 1
  %63 = load i32, ptr %62, align 8
  %64 = sext i32 %63 to i64
  %65 = getelementptr inbounds i8, ptr %60, i64 %64
  store i8 34, ptr %65, align 1
  %66 = load ptr, ptr %3, align 8
  %67 = getelementptr inbounds nuw %struct.StringInfoData, ptr %66, i32 0, i32 0
  %68 = load ptr, ptr %67, align 8
  %69 = load ptr, ptr %3, align 8
  %70 = getelementptr inbounds nuw %struct.StringInfoData, ptr %69, i32 0, i32 1
  %71 = load i32, ptr %70, align 8
  %72 = add i32 %71, 1
  store i32 %72, ptr %70, align 8
  %73 = sext i32 %72 to i64
  %74 = getelementptr inbounds i8, ptr %68, i64 %73
  store i8 0, ptr %74, align 1
  br label %75

75:                                               ; preds = %57, %55
  ret void
}