; Function Attrs: nounwind uwtable
define dso_local void @escape_json(ptr noundef %0, ptr noundef readonly captures(none) %1) local_unnamed_addr #0 {
  %3 = getelementptr inbounds nuw i8, ptr %0, i64 8
  %4 = load i32, ptr %3, align 8
  %5 = add i32 %4, 1
  %6 = getelementptr inbounds nuw i8, ptr %0, i64 12
  %7 = load i32, ptr %6, align 4
  %.not = icmp slt i32 %5, %7
  br i1 %.not, label %9, label %8

8:                                                ; preds = %2
  tail call void @appendStringInfoChar(ptr noundef nonnull %0, i8 noundef signext 34) #10
  br label %18

9:                                                ; preds = %2
  %10 = load ptr, ptr %0, align 8
  %11 = sext i32 %4 to i64
  %12 = getelementptr inbounds i8, ptr %10, i64 %11
  store i8 34, ptr %12, align 1
  %13 = load ptr, ptr %0, align 8
  %14 = load i32, ptr %3, align 8
  %15 = add i32 %14, 1
  store i32 %15, ptr %3, align 8
  %16 = sext i32 %15 to i64
  %17 = getelementptr inbounds i8, ptr %13, i64 %16
  store i8 0, ptr %17, align 1
  br label %18

18:                                               ; preds = %9, %8
  %19 = load i8, ptr %1, align 1
  %.not1820 = icmp eq i8 %19, 0
  br i1 %.not1820, label %._crit_edge, label %.lr.ph

.lr.ph:                                           ; preds = %18, %escape_json_char.exit
  %20 = phi i8 [ %47, %escape_json_char.exit ], [ %19, %18 ]
  %.021 = phi ptr [ %46, %escape_json_char.exit ], [ %1, %18 ]
  %21 = sext i8 %20 to i32
  switch i8 %20, label %29 [
    i8 8, label %22
    i8 12, label %23
    i8 10, label %24
    i8 13, label %25
    i8 9, label %26
    i8 34, label %27
    i8 92, label %28
  ]

22:                                               ; preds = %.lr.ph
  tail call void @appendStringInfoString(ptr noundef %0, ptr noundef nonnull @.str.40) #10
  br label %escape_json_char.exit

23:                                               ; preds = %.lr.ph
  tail call void @appendStringInfoString(ptr noundef %0, ptr noundef nonnull @.str.41) #10
  br label %escape_json_char.exit

24:                                               ; preds = %.lr.ph
  tail call void @appendStringInfoString(ptr noundef %0, ptr noundef nonnull @.str.42) #10
  br label %escape_json_char.exit

25:                                               ; preds = %.lr.ph
  tail call void @appendStringInfoString(ptr noundef %0, ptr noundef nonnull @.str.43) #10
  br label %escape_json_char.exit

26:                                               ; preds = %.lr.ph
  tail call void @appendStringInfoString(ptr noundef %0, ptr noundef nonnull @.str.44) #10
  br label %escape_json_char.exit

27:                                               ; preds = %.lr.ph
  tail call void @appendStringInfoString(ptr noundef %0, ptr noundef nonnull @.str.45) #10
  br label %escape_json_char.exit

28:                                               ; preds = %.lr.ph
  tail call void @appendStringInfoString(ptr noundef %0, ptr noundef nonnull @.str.46) #10
  br label %escape_json_char.exit

29:                                               ; preds = %.lr.ph
  %30 = icmp ult i8 %20, 32
  br i1 %30, label %31, label %32

31:                                               ; preds = %29
  tail call void (ptr, ptr, ...) @appendStringInfo(ptr noundef %0, ptr noundef nonnull @.str.47, i32 noundef %21) #10
  br label %escape_json_char.exit

32:                                               ; preds = %29
  %33 = load i32, ptr %3, align 8
  %34 = add i32 %33, 1
  %35 = load i32, ptr %6, align 4
  %.not.i = icmp slt i32 %34, %35
  br i1 %.not.i, label %37, label %36

36:                                               ; preds = %32
  tail call void @appendStringInfoChar(ptr noundef nonnull %0, i8 noundef signext %20) #10
  br label %escape_json_char.exit

37:                                               ; preds = %32
  %38 = load ptr, ptr %0, align 8
  %39 = sext i32 %33 to i64
  %40 = getelementptr inbounds i8, ptr %38, i64 %39
  store i8 %20, ptr %40, align 1
  %41 = load ptr, ptr %0, align 8
  %42 = load i32, ptr %3, align 8
  %43 = add i32 %42, 1
  store i32 %43, ptr %3, align 8
  %44 = sext i32 %43 to i64
  %45 = getelementptr inbounds i8, ptr %41, i64 %44
  store i8 0, ptr %45, align 1
  br label %escape_json_char.exit

escape_json_char.exit:                            ; preds = %22, %23, %24, %25, %26, %27, %28, %31, %36, %37
  %46 = getelementptr inbounds nuw i8, ptr %.021, i64 1
  %47 = load i8, ptr %46, align 1
  %.not18 = icmp eq i8 %47, 0
  br i1 %.not18, label %._crit_edge, label %.lr.ph, !llvm.loop !12

._crit_edge:                                      ; preds = %escape_json_char.exit, %18
  %48 = load i32, ptr %3, align 8
  %49 = add i32 %48, 1
  %50 = load i32, ptr %6, align 4
  %.not19 = icmp slt i32 %49, %50
  br i1 %.not19, label %52, label %51

51:                                               ; preds = %._crit_edge
  tail call void @appendStringInfoChar(ptr noundef nonnull %0, i8 noundef signext 34) #10
  br label %61

52:                                               ; preds = %._crit_edge
  %53 = load ptr, ptr %0, align 8
  %54 = sext i32 %48 to i64
  %55 = getelementptr inbounds i8, ptr %53, i64 %54
  store i8 34, ptr %55, align 1
  %56 = load ptr, ptr %0, align 8
  %57 = load i32, ptr %3, align 8
  %58 = add i32 %57, 1
  store i32 %58, ptr %3, align 8
  %59 = sext i32 %58 to i64
  %60 = getelementptr inbounds i8, ptr %56, i64 %59
  store i8 0, ptr %60, align 1
  br label %61

61:                                               ; preds = %52, %51
  ret void
}